; Function Attrs: nounwind uwtable
define ptr @Abc_ObjHopFromGia_rec(ptr noundef %0, ptr noundef %1, i32 noundef %2, ptr noundef %3) local_unnamed_addr #1 {
  %5 = getelementptr i8, ptr %1, i64 176
  %.val27 = load i32, ptr %5, align 8
  %6 = getelementptr i8, ptr %1, i64 616
  %.val28 = load ptr, ptr %6, align 8
  %7 = sext i32 %2 to i64
  %8 = getelementptr inbounds i32, ptr %.val28, i64 %7
  %9 = load i32, ptr %8, align 4
  %.not = icmp eq i32 %9, %.val27
  br i1 %.not, label %common.ret, label %13

common.ret:                                       ; preds = %4
  %10 = getelementptr i8, ptr %3, i64 8
  %.val = load ptr, ptr %10, align 8
  %11 = getelementptr inbounds ptr, ptr %.val, i64 %7
  %12 = load ptr, ptr %11, align 8
  br label %common.ret37

common.ret37:                                     ; preds = %13, %common.ret
  %common.ret37.op = phi ptr [ %12, %common.ret ], [ %35, %13 ]
  ret ptr %common.ret37.op

13:                                               ; preds = %4
  store i32 %.val27, ptr %8, align 4
  %14 = getelementptr i8, ptr %1, i64 32
  %.val31 = load ptr, ptr %14, align 8
  %15 = getelementptr inbounds %struct.Gia_Obj_t_, ptr %.val31, i64 %7
  %.val32 = load i64, ptr %15, align 4
  %16 = trunc i64 %.val32 to i32
  %17 = and i32 %16, 536870911
  %18 = sub nsw i32 %2, %17
  %19 = tail call ptr @Abc_ObjHopFromGia_rec(ptr noundef %0, ptr noundef nonnull %1, i32 noundef %18, ptr noundef %3)
  %.val33 = load i64, ptr %15, align 4
  %20 = lshr i64 %.val33, 32
  %21 = trunc nuw i64 %20 to i32
  %22 = and i32 %21, 536870911
  %23 = sub nsw i32 %2, %22
  %24 = tail call ptr @Abc_ObjHopFromGia_rec(ptr noundef %0, ptr noundef nonnull %1, i32 noundef %23, ptr noundef %3)
  %.val34 = load i64, ptr %15, align 4
  %25 = lshr i64 %.val34, 29
  %26 = and i64 %25, 1
  %27 = ptrtoint ptr %19 to i64
  %28 = xor i64 %26, %27
  %29 = inttoptr i64 %28 to ptr
  %30 = lshr i64 %.val34, 61
  %31 = and i64 %30, 1
  %32 = ptrtoint ptr %24 to i64
  %33 = xor i64 %31, %32
  %34 = inttoptr i64 %33 to ptr
  %35 = tail call ptr @Hop_And(ptr noundef %0, ptr noundef %29, ptr noundef %34) #19
  %36 = getelementptr i8, ptr %3, i64 8
  %.val36 = load ptr, ptr %36, align 8
  %37 = getelementptr inbounds ptr, ptr %.val36, i64 %7
  store ptr %35, ptr %37, align 8
  br label %common.ret37
}